target datalayout = "e-m:e-p270:32:32-p271:32:32-p272:64:64-i64:64-i128:128-f80:128-n8:16:32:64-S128"
target triple = "x86_64-pc-linux-gnu"

%"class.logos::Match" = type { ptr, ptr, float, float, float, float, float, float, float, float, float, float }
%"class.logos::PointPair" = type <{ ptr, ptr, i32, float, float, i32, i32, [4 x i8] }>
%"class.logos::Point" = type { float, float, float, float, %"class.std::vector", i8, i32 }
%"class.std::vector" = type { %"struct.std::_Vector_base" }
%"struct.std::_Vector_base" = type { %"struct.std::_Vector_base<logos::Point *, std::allocator<logos::Point *>>::_Vector_impl" }
%"struct.std::_Vector_base<logos::Point *, std::allocator<logos::Point *>>::_Vector_impl" = type { %"struct.std::_Vector_base<logos::Point *, std::allocator<logos::Point *>>::_Vector_impl_data" }
%"struct.std::_Vector_base<logos::Point *, std::allocator<logos::Point *>>::_Vector_impl_data" = type { ptr, ptr, ptr }

; Function Attrs: inlinehint mustprogress nounwind uwtable
define linkonce_odr noundef nonnull align 4 dereferenceable(4) ptr @_ZSt3minIfERKT_S2_S2_(ptr noundef nonnull align 4 dereferenceable(4) %0, ptr noundef nonnull align 4 dereferenceable(4) %1) #6 comdat {
  %3 = alloca ptr, align 8
  %4 = alloca ptr, align 8
  %5 = alloca ptr, align 8
  store ptr %0, ptr %4, align 8, !tbaa !34
  store ptr %1, ptr %5, align 8, !tbaa !34
  %6 = load ptr, ptr %5, align 8, !tbaa !34
  %7 = load float, ptr %6, align 4, !tbaa !20
  %8 = load ptr, ptr %4, align 8, !tbaa !34
  %9 = load float, ptr %8, align 4, !tbaa !20
  %10 = fcmp olt float %7, %9
  br i1 %10, label %11, label %13

11:                                               ; preds = %2
  %12 = load ptr, ptr %5, align 8, !tbaa !34
  store ptr %12, ptr %3, align 8
  br label %15

13:                                               ; preds = %2
  %14 = load ptr, ptr %4, align 8, !tbaa !34
  store ptr %14, ptr %3, align 8
  br label %15

15:                                               ; preds = %13, %11
  %16 = load ptr, ptr %3, align 8
  ret ptr %16
}

; Function Attrs: inlinehint mustprogress nounwind uwtable
define linkonce_odr hidden noundef float @_ZNK5logos5Point4getyEv(ptr noundef nonnull align 8 dereferenceable(48) %0) #6 comdat align 2 {
  %2 = alloca ptr, align 8
  store ptr %0, ptr %2, align 8, !tbaa !44
  %3 = load ptr, ptr %2, align 8
  %4 = getelementptr inbounds nuw %"class.logos::Point", ptr %3, i32 0, i32 1
  %5 = load float, ptr %4, align 4, !tbaa !54
  ret float %5
}

; Function Attrs: inlinehint mustprogress nounwind uwtable
define linkonce_odr hidden noundef float @_ZNK5logos5Point4getxEv(ptr noundef nonnull align 8 dereferenceable(48) %0) #6 comdat align 2 {
  %2 = alloca ptr, align 8
  store ptr %0, ptr %2, align 8, !tbaa !44
  %3 = load ptr, ptr %2, align 8
  %4 = getelementptr inbounds nuw %"class.logos::Point", ptr %3, i32 0, i32 0
  %5 = load float, ptr %4, align 8, !tbaa !45
  ret float %5
}

; Function Attrs: inlinehint mustprogress nounwind uwtable
define linkonce_odr noundef float @_ZSt4fabsf(float noundef %0) #6 comdat {
  %2 = alloca float, align 4
  store float %0, ptr %2, align 4, !tbaa !20
  %3 = load float, ptr %2, align 4, !tbaa !20
  %4 = call float @llvm.fabs.f32(float %3)
  ret float %4
}

; Function Attrs: mustprogress nounwind uwtable
define linkonce_odr hidden noundef float @_ZNK5logos9PointPair11getRelScaleEv(ptr noundef nonnull align 8 dereferenceable(36) %0) #5 comdat align 2 {
  %2 = alloca ptr, align 8
  store ptr %0, ptr %2, align 8, !tbaa !8
  %3 = load ptr, ptr %2, align 8
  %4 = getelementptr inbounds nuw %"class.logos::PointPair", ptr %3, i32 0, i32 4
  %5 = load float, ptr %4, align 8, !tbaa !33
  ret float %5
}

; Function Attrs: mustprogress uwtable
define hidden noundef float @_ZN5logos5Match12angleAbsDiffEff(ptr noundef nonnull align 8 dereferenceable(56) %0, float noundef %1, float noundef %2) #4 align 2 {
  %4 = alloca ptr, align 8
  %5 = alloca float, align 4
  %6 = alloca float, align 4
  %7 = alloca float, align 4
  %8 = alloca float, align 4
  %9 = alloca float, align 4
  store ptr %0, ptr %4, align 8, !tbaa !3
  store float %1, ptr %5, align 4, !tbaa !20
  store float %2, ptr %6, align 4, !tbaa !20
  call void @llvm.lifetime.start.p0(i64 4, ptr %7) #3
  %10 = load float, ptr %5, align 4, !tbaa !20
  %11 = load float, ptr %6, align 4, !tbaa !20
  %12 = fsub float %10, %11
  %13 = call noundef float @_ZSt4fabsf(float noundef %12)
  store float %13, ptr %7, align 4, !tbaa !20
  br label %14

14:                                               ; preds = %18, %3
  %15 = load float, ptr %7, align 4, !tbaa !20
  %16 = fpext float %15 to double
  %17 = fcmp ogt double %16, 0x401921FB54442D18
  br i1 %17, label %18, label %23

18:                                               ; preds = %14
  %19 = load float, ptr %7, align 4, !tbaa !20
  %20 = fpext float %19 to double
  %21 = fsub double %20, 0x401921FB54442D18
  %22 = fptrunc double %21 to float
  store float %22, ptr %7, align 4, !tbaa !20
  br label %14, !llvm.loop !30

23:                                               ; preds = %14
  call void @llvm.lifetime.start.p0(i64 4, ptr %8) #3
  %24 = load float, ptr %7, align 4, !tbaa !20
  %25 = call noundef float @_ZSt4fabsf(float noundef %24)
  store float %25, ptr %8, align 4, !tbaa !20
  call void @llvm.lifetime.start.p0(i64 4, ptr %9) #3
  %26 = load float, ptr %7, align 4, !tbaa !20
  %27 = call noundef float @_ZSt4fabsf(float noundef %26)
  %28 = fpext float %27 to double
  %29 = fsub double 0x401921FB54442D18, %28
  %30 = fptrunc double %29 to float
  %31 = call noundef float @_ZSt4fabsf(float noundef %30)
  store float %31, ptr %9, align 4, !tbaa !20
  %32 = call noundef nonnull align 4 dereferenceable(4) ptr @_ZSt3minIfERKT_S2_S2_(ptr noundef nonnull align 4 dereferenceable(4) %8, ptr noundef nonnull align 4 dereferenceable(4) %9)
  %33 = load float, ptr %32, align 4, !tbaa !20
  store float %33, ptr %7, align 4, !tbaa !20
  call void @llvm.lifetime.end.p0(i64 4, ptr %9) #3
  call void @llvm.lifetime.end.p0(i64 4, ptr %8) #3
  %34 = load float, ptr %7, align 4, !tbaa !20
  call void @llvm.lifetime.end.p0(i64 4, ptr %7) #3
  ret float %34
}

; Function Attrs: mustprogress nounwind uwtable
define linkonce_odr hidden noundef float @_ZNK5logos9PointPair9getRelOriEv(ptr noundef nonnull align 8 dereferenceable(36) %0) #5 comdat align 2 {
  %2 = alloca ptr, align 8
  store ptr %0, ptr %2, align 8, !tbaa !8
  %3 = load ptr, ptr %2, align 8
  %4 = getelementptr inbounds nuw %"class.logos::PointPair", ptr %3, i32 0, i32 3
  %5 = load float, ptr %4, align 4, !tbaa !32
  ret float %5
}

; Function Attrs: mustprogress nounwind uwtable
define linkonce_odr hidden noundef float @_ZNK5logos9PointPair5gety2Ev(ptr noundef nonnull align 8 dereferenceable(36) %0) #5 comdat align 2 {
  %2 = alloca ptr, align 8
  store ptr %0, ptr %2, align 8, !tbaa !8
  %3 = load ptr, ptr %2, align 8
  %4 = getelementptr inbounds nuw %"class.logos::PointPair", ptr %3, i32 0, i32 1
  %5 = load ptr, ptr %4, align 8, !tbaa !29
  %6 = call noundef float @_ZNK5logos5Point4getyEv(ptr noundef nonnull align 8 dereferenceable(48) %5)
  ret float %6
}

; Function Attrs: mustprogress nounwind uwtable
define linkonce_odr hidden noundef float @_ZNK5logos9PointPair5getx2Ev(ptr noundef nonnull align 8 dereferenceable(36) %0) #5 comdat align 2 {
  %2 = alloca ptr, align 8
  store ptr %0, ptr %2, align 8, !tbaa !8
  %3 = load ptr, ptr %2, align 8
  %4 = getelementptr inbounds nuw %"class.logos::PointPair", ptr %3, i32 0, i32 1
  %5 = load ptr, ptr %4, align 8, !tbaa !29
  %6 = call noundef float @_ZNK5logos5Point4getxEv(ptr noundef nonnull align 8 dereferenceable(48) %5)
  ret float %6
}

; Function Attrs: mustprogress uwtable
define linkonce_odr hidden noundef float @_ZNK5logos9PointPair5gety1Ev(ptr noundef nonnull align 8 dereferenceable(36) %0) #4 comdat align 2 {
  %2 = alloca ptr, align 8
  store ptr %0, ptr %2, align 8, !tbaa !8
  %3 = load ptr, ptr %2, align 8
  %4 = getelementptr inbounds nuw %"class.logos::PointPair", ptr %3, i32 0, i32 0
  %5 = load ptr, ptr %4, align 8, !tbaa !25
  %6 = call noundef float @_ZNK5logos5Point4getyEv(ptr noundef nonnull align 8 dereferenceable(48) %5)
  ret float %6
}

; Function Attrs: mustprogress uwtable
define linkonce_odr hidden noundef float @_ZNK5logos9PointPair5getx1Ev(ptr noundef nonnull align 8 dereferenceable(36) %0) #4 comdat align 2 {
  %2 = alloca ptr, align 8
  store ptr %0, ptr %2, align 8, !tbaa !8
  %3 = load ptr, ptr %2, align 8
  %4 = getelementptr inbounds nuw %"class.logos::PointPair", ptr %3, i32 0, i32 0
  %5 = load ptr, ptr %4, align 8, !tbaa !25
  %6 = call noundef float @_ZNK5logos5Point4getxEv(ptr noundef nonnull align 8 dereferenceable(48) %5)
  ret float %6
}

; Function Attrs: mustprogress uwtable
define hidden void @_ZN5logos5Match11setRelScaleEv(ptr noundef nonnull align 8 dereferenceable(56) %0) #4 align 2 {
  %2 = alloca ptr, align 8
  store ptr %0, ptr %2, align 8, !tbaa !3
  %3 = load ptr, ptr %2, align 8
  %4 = getelementptr inbounds nuw %"class.logos::Match", ptr %3, i32 0, i32 0
  %5 = load ptr, ptr %4, align 8, !tbaa !10
  %6 = call noundef float @_ZNK5logos9PointPair11getRelScaleEv(ptr noundef nonnull align 8 dereferenceable(36) %5)
  %7 = getelementptr inbounds nuw %"class.logos::Match", ptr %3, i32 0, i32 1
  %8 = load ptr, ptr %7, align 8, !tbaa !13
  %9 = call noundef float @_ZNK5logos9PointPair11getRelScaleEv(ptr noundef nonnull align 8 dereferenceable(36) %8)
  %10 = fsub float %6, %9
  %11 = call noundef float @_ZSt4fabsf(float noundef %10)
  %12 = getelementptr inbounds nuw %"class.logos::Match", ptr %3, i32 0, i32 3
  store float %11, ptr %12, align 4, !tbaa !19
  ret void
}

; Function Attrs: mustprogress uwtable
define hidden void @_ZN5logos5Match17setRelOrientationEv(ptr noundef nonnull align 8 dereferenceable(56) %0) #4 align 2 {
  %2 = alloca ptr, align 8
  store ptr %0, ptr %2, align 8, !tbaa !3
  %3 = load ptr, ptr %2, align 8
  %4 = getelementptr inbounds nuw %"class.logos::Match", ptr %3, i32 0, i32 0
  %5 = load ptr, ptr %4, align 8, !tbaa !10
  %6 = call noundef float @_ZNK5logos9PointPair9getRelOriEv(ptr noundef nonnull align 8 dereferenceable(36) %5)
  %7 = getelementptr inbounds nuw %"class.logos::Match", ptr %3, i32 0, i32 1
  %8 = load ptr, ptr %7, align 8, !tbaa !13
  %9 = call noundef float @_ZNK5logos9PointPair9getRelOriEv(ptr noundef nonnull align 8 dereferenceable(36) %8)
  %10 = call noundef float @_ZN5logos5Match12angleAbsDiffEff(ptr noundef nonnull align 8 dereferenceable(56) %3, float noundef %6, float noundef %9)
  %11 = getelementptr inbounds nuw %"class.logos::Match", ptr %3, i32 0, i32 2
  store float %10, ptr %11, align 8, !tbaa !18
  ret void
}

; Function Attrs: mustprogress uwtable
define hidden void @_ZN5logos5Match26calculateInternalVariablesEv(ptr noundef nonnull align 8 dereferenceable(56) %0) #4 align 2 {
  %2 = alloca ptr, align 8
  store ptr %0, ptr %2, align 8, !tbaa !3
  %3 = load ptr, ptr %2, align 8
  %4 = getelementptr inbounds nuw %"class.logos::Match", ptr %3, i32 0, i32 0
  %5 = load ptr, ptr %4, align 8, !tbaa !10
  %6 = call noundef float @_ZNK5logos9PointPair5getx1Ev(ptr noundef nonnull align 8 dereferenceable(36) %5)
  %7 = getelementptr inbounds nuw %"class.logos::Match", ptr %3, i32 0, i32 1
  %8 = load ptr, ptr %7, align 8, !tbaa !13
  %9 = call noundef float @_ZNK5logos9PointPair5getx1Ev(ptr noundef nonnull align 8 dereferenceable(36) %8)
  %10 = fsub float %6, %9
  %11 = getelementptr inbounds nuw %"class.logos::Match", ptr %3, i32 0, i32 8
  store float %10, ptr %11, align 8, !tbaa !14
  %12 = getelementptr inbounds nuw %"class.logos::Match", ptr %3, i32 0, i32 0
  %13 = load ptr, ptr %12, align 8, !tbaa !10
  %14 = call noundef float @_ZNK5logos9PointPair5gety1Ev(ptr noundef nonnull align 8 dereferenceable(36) %13)
  %15 = getelementptr inbounds nuw %"class.logos::Match", ptr %3, i32 0, i32 1
  %16 = load ptr, ptr %15, align 8, !tbaa !13
  %17 = call noundef float @_ZNK5logos9PointPair5gety1Ev(ptr noundef nonnull align 8 dereferenceable(36) %16)
  %18 = fsub float %14, %17
  %19 = getelementptr inbounds nuw %"class.logos::Match", ptr %3, i32 0, i32 9
  store float %18, ptr %19, align 4, !tbaa !15
  %20 = getelementptr inbounds nuw %"class.logos::Match", ptr %3, i32 0, i32 0
  %21 = load ptr, ptr %20, align 8, !tbaa !10
  %22 = call noundef float @_ZNK5logos9PointPair5getx2Ev(ptr noundef nonnull align 8 dereferenceable(36) %21)
  %23 = getelementptr inbounds nuw %"class.logos::Match", ptr %3, i32 0, i32 1
  %24 = load ptr, ptr %23, align 8, !tbaa !13
  %25 = call noundef float @_ZNK5logos9PointPair5getx2Ev(ptr noundef nonnull align 8 dereferenceable(36) %24)
  %26 = fsub float %22, %25
  %27 = getelementptr inbounds nuw %"class.logos::Match", ptr %3, i32 0, i32 10
  store float %26, ptr %27, align 8, !tbaa !16
  %28 = getelementptr inbounds nuw %"class.logos::Match", ptr %3, i32 0, i32 0
  %29 = load ptr, ptr %28, align 8, !tbaa !10
  %30 = call noundef float @_ZNK5logos9PointPair5gety2Ev(ptr noundef nonnull align 8 dereferenceable(36) %29)
  %31 = getelementptr inbounds nuw %"class.logos::Match", ptr %3, i32 0, i32 1
  %32 = load ptr, ptr %31, align 8, !tbaa !13
  %33 = call noundef float @_ZNK5logos9PointPair5gety2Ev(ptr noundef nonnull align 8 dereferenceable(36) %32)
  %34 = fsub float %30, %33
  %35 = getelementptr inbounds nuw %"class.logos::Match", ptr %3, i32 0, i32 11
  store float %34, ptr %35, align 4, !tbaa !17
  ret void
}

; Function Attrs: mustprogress uwtable
define hidden void @_ZN5logos5MatchC2EPNS_9PointPairES2_(ptr noundef nonnull align 8 dereferenceable(56) %0, ptr noundef %1, ptr noundef %2) unnamed_addr #4 align 2 {
  %4 = alloca ptr, align 8
  %5 = alloca ptr, align 8
  %6 = alloca ptr, align 8
  store ptr %0, ptr %4, align 8, !tbaa !3
  store ptr %1, ptr %5, align 8, !tbaa !8
  store ptr %2, ptr %6, align 8, !tbaa !8
  %7 = load ptr, ptr %4, align 8
  %8 = getelementptr inbounds nuw %"class.logos::Match", ptr %7, i32 0, i32 0
  %9 = load ptr, ptr %5, align 8, !tbaa !8
  store ptr %9, ptr %8, align 8, !tbaa !10
  %10 = getelementptr inbounds nuw %"class.logos::Match", ptr %7, i32 0, i32 1
  %11 = load ptr, ptr %6, align 8, !tbaa !8
  store ptr %11, ptr %10, align 8, !tbaa !13
  call void @_ZN5logos5Match26calculateInternalVariablesEv(ptr noundef nonnull align 8 dereferenceable(56) %7)
  call void @_ZN5logos5Match17setRelOrientationEv(ptr noundef nonnull align 8 dereferenceable(56) %7)
  call void @_ZN5logos5Match11setRelScaleEv(ptr noundef nonnull align 8 dereferenceable(56) %7)
  call void @_ZN5logos5Match24interOrientationAndScaleEv(ptr noundef nonnull align 8 dereferenceable(56) %7)
  ret void
}