; Function Attrs: mustprogress nofree nounwind memory(readwrite, inaccessiblemem: write) uwtable
define hidden void @_ZN5logos5MatchC2EPNS_9PointPairES2_(ptr noundef nonnull align 8 captures(none) dereferenceable(56) initializes((0, 16), (40, 56)) %0, ptr noundef %1, ptr noundef %2) unnamed_addr #3 align 2 {
  store ptr %1, ptr %0, align 8, !tbaa !3
  %4 = getelementptr inbounds nuw i8, ptr %0, i64 8
  store ptr %2, ptr %4, align 8, !tbaa !10
  %5 = load ptr, ptr %1, align 8, !tbaa !11
  %6 = load float, ptr %5, align 8, !tbaa !15
  %7 = load ptr, ptr %2, align 8, !tbaa !11
  %8 = load float, ptr %7, align 8, !tbaa !15
  %9 = fsub float %6, %8
  %10 = getelementptr inbounds nuw i8, ptr %0, i64 40
  store float %9, ptr %10, align 8, !tbaa !24
  %11 = getelementptr inbounds nuw i8, ptr %5, i64 4
  %12 = load float, ptr %11, align 4, !tbaa !25
  %13 = getelementptr inbounds nuw i8, ptr %7, i64 4
  %14 = load float, ptr %13, align 4, !tbaa !25
  %15 = fsub float %12, %14
  %16 = getelementptr inbounds nuw i8, ptr %0, i64 44
  store float %15, ptr %16, align 4, !tbaa !26
  %17 = getelementptr inbounds nuw i8, ptr %1, i64 8
  %18 = load ptr, ptr %17, align 8, !tbaa !27
  %19 = load float, ptr %18, align 8, !tbaa !15
  %20 = getelementptr inbounds nuw i8, ptr %2, i64 8
  %21 = load ptr, ptr %20, align 8, !tbaa !27
  %22 = load float, ptr %21, align 8, !tbaa !15
  %23 = fsub float %19, %22
  %24 = getelementptr inbounds nuw i8, ptr %0, i64 48
  store float %23, ptr %24, align 8, !tbaa !28
  %25 = getelementptr inbounds nuw i8, ptr %18, i64 4
  %26 = load float, ptr %25, align 4, !tbaa !25
  %27 = getelementptr inbounds nuw i8, ptr %21, i64 4
  %28 = load float, ptr %27, align 4, !tbaa !25
  %29 = fsub float %26, %28
  %30 = getelementptr inbounds nuw i8, ptr %0, i64 52
  store float %29, ptr %30, align 4, !tbaa !29
  %31 = getelementptr inbounds nuw i8, ptr %1, i64 20
  %32 = load float, ptr %31, align 4, !tbaa !30
  %33 = getelementptr inbounds nuw i8, ptr %2, i64 20
  %34 = load float, ptr %33, align 4, !tbaa !30
  %35 = fsub float %32, %34
  %36 = tail call noundef float @llvm.fabs.f32(float %35)
  %37 = fpext float %36 to double
  %38 = fcmp ogt double %37, 0x401921FB54442D18
  br i1 %38, label %.lr.ph.i.i, label %_ZN5logos5Match17setRelOrientationEv.exit

.lr.ph.i.i:                                       ; preds = %3, %.lr.ph.i.i
  %39 = phi double [ %42, %.lr.ph.i.i ], [ %37, %3 ]
  %40 = fadd double %39, 0xC01921FB54442D18
  %41 = fptrunc double %40 to float
  %42 = fpext float %41 to double
  %43 = fcmp ogt double %42, 0x401921FB54442D18
  br i1 %43, label %.lr.ph.i.i, label %_ZN5logos5Match17setRelOrientationEv.exit, !llvm.loop !31

_ZN5logos5Match17setRelOrientationEv.exit:        ; preds = %.lr.ph.i.i, %3
  %.0.lcssa.i.i = phi float [ %36, %3 ], [ %41, %.lr.ph.i.i ]
  %44 = tail call noundef float @llvm.fabs.f32(float %.0.lcssa.i.i)
  %45 = fpext float %44 to double
  %46 = fsub double 0x401921FB54442D18, %45
  %47 = fptrunc double %46 to float
  %48 = tail call noundef float @llvm.fabs.f32(float %47)
  %49 = fcmp olt float %48, %44
  %.sroa.speculated.i.i = select i1 %49, float %48, float %44
  %50 = getelementptr inbounds nuw i8, ptr %0, i64 16
  store float %.sroa.speculated.i.i, ptr %50, align 8, !tbaa !33
  %51 = getelementptr inbounds nuw i8, ptr %1, i64 24
  %52 = load float, ptr %51, align 8, !tbaa !34
  %53 = getelementptr inbounds nuw i8, ptr %2, i64 24
  %54 = load float, ptr %53, align 8, !tbaa !34
  %55 = fsub float %52, %54
  %56 = tail call noundef float @llvm.fabs.f32(float %55)
  %57 = getelementptr inbounds nuw i8, ptr %0, i64 20
  store float %56, ptr %57, align 4, !tbaa !35
  tail call void @_ZN5logos5Match24interOrientationAndScaleEv(ptr noundef nonnull align 8 dereferenceable(56) %0)
  ret void
}